target datalayout = "e-m:e-p270:32:32-p271:32:32-p272:64:64-i64:64-i128:128-f80:128-n8:16:32:64-S128"
target triple = "x86_64-pc-linux-gnu"

%union.Test4 = type { i64 }
%struct.Test5 = type { i32, %struct.anon.0, i32 }
%struct.anon.0 = type { i32, %union.Test4 }

; Function Attrs: nounwind uwtable
define i64 @_testfunc_union_by_reference3(ptr noundef %0) #0 {
  %2 = alloca ptr, align 8
  %3 = alloca i64, align 8
  store ptr %0, ptr %2, align 8, !tbaa !7
  call void @llvm.lifetime.start.p0(i64 8, ptr %3) #12
  %4 = load ptr, ptr %2, align 8, !tbaa !7
  %5 = getelementptr inbounds nuw %struct.Test5, ptr %4, i32 0, i32 0
  %6 = load i32, ptr %5, align 8, !tbaa !36
  %7 = load ptr, ptr %2, align 8, !tbaa !7
  %8 = getelementptr inbounds nuw %struct.Test5, ptr %7, i32 0, i32 1
  %9 = getelementptr inbounds nuw %struct.anon.0, ptr %8, i32 0, i32 0
  %10 = load i32, ptr %9, align 8, !tbaa !39
  %11 = add i32 %6, %10
  %12 = load ptr, ptr %2, align 8, !tbaa !7
  %13 = getelementptr inbounds nuw %struct.Test5, ptr %12, i32 0, i32 2
  %14 = load i32, ptr %13, align 8, !tbaa !40
  %15 = add i32 %11, %14
  %16 = sext i32 %15 to i64
  store i64 %16, ptr %3, align 8, !tbaa !35
  %17 = load ptr, ptr %2, align 8, !tbaa !7
  call void @llvm.memset.p0.i64(ptr align 8 %17, i8 0, i64 32, i1 false)
  %18 = load i64, ptr %3, align 8, !tbaa !35
  call void @llvm.lifetime.end.p0(i64 8, ptr %3) #12
  ret i64 %18
}