; Function Attrs: mustprogress nofree norecurse nosync nounwind willreturn memory(argmem: readwrite) uwtable
define range(i64 -2147483648, 2147483648) i64 @_testfunc_union_by_reference3(ptr noundef captures(none) initializes((4, 8), (12, 24), (28, 32)) %0) local_unnamed_addr #12 {
  %2 = load i32, ptr %0, align 8, !tbaa !31
  %3 = getelementptr inbounds nuw i8, ptr %0, i64 8
  %4 = load i32, ptr %3, align 8, !tbaa !34
  %5 = add i32 %4, %2
  %6 = getelementptr inbounds nuw i8, ptr %0, i64 24
  %7 = load i32, ptr %6, align 8, !tbaa !35
  %8 = add i32 %5, %7
  %9 = sext i32 %8 to i64
  tail call void @llvm.memset.p0.i64(ptr noundef nonnull align 8 dereferenceable(32) %0, i8 0, i64 32, i1 false)
  ret i64 %9
}